target datalayout = "e-m:e-p270:32:32-p271:32:32-p272:64:64-i64:64-i128:128-f80:128-n8:16:32:64-S128"
target triple = "x86_64-pc-linux-gnu"

%class.QPen = type { ptr }
%class.QColor = type <{ i32, %"union.QColor::CT", [2 x i8] }>
%"union.QColor::CT" = type { %struct.anon }
%struct.anon = type { i16, i16, i16, i16, i16 }
%class.RtpAudioGraph = type <{ %class.QObject, ptr, i32, %class.QColor, [4 x i8] }>
%class.QObject = type { ptr, %class.QScopedPointer }
%class.QScopedPointer = type { ptr }
%class.QCPAbstractPlottable = type { %class.QCPLayerable.base, %class.QString, i8, i8, %class.QPen, %class.QBrush, %class.QPointer.25, %class.QPointer.25, i32, %class.QCPDataSelection, ptr }
%class.QCPLayerable.base = type <{ %class.QObject, i8, [7 x i8], ptr, %class.QPointer, ptr, i8 }>
%class.QPointer = type { %class.QWeakPointer }
%class.QWeakPointer = type { ptr, ptr }
%class.QString = type { %struct.QArrayDataPointer.24 }
%struct.QArrayDataPointer.24 = type { ptr, ptr, i64 }
%class.QBrush = type { %"class.std::unique_ptr" }
%"class.std::unique_ptr" = type { %"struct.std::__uniq_ptr_data" }
%"struct.std::__uniq_ptr_data" = type { %"class.std::__uniq_ptr_impl" }
%"class.std::__uniq_ptr_impl" = type { %"class.std::tuple" }
%"class.std::tuple" = type { %"struct.std::_Tuple_impl" }
%"struct.std::_Tuple_impl" = type { %"struct.std::_Head_base.18" }
%"struct.std::_Head_base.18" = type { ptr }
%class.QPointer.25 = type { %class.QWeakPointer }
%class.QCPDataSelection = type { %class.QList.26 }
%class.QList.26 = type { %struct.QArrayDataPointer.29 }
%struct.QArrayDataPointer.29 = type { ptr, ptr, i64 }

; Function Attrs: mustprogress nounwind uwtable
define linkonce_odr void @_ZNK20QCPAbstractPlottable3penEv(ptr dead_on_unwind noalias writable sret(%class.QPen) align 8 %0, ptr noundef nonnull align 8 dereferenceable(184) %1) #2 comdat align 2 {
  %3 = alloca ptr, align 8
  %4 = alloca ptr, align 8
  store ptr %0, ptr %3, align 8
  store ptr %1, ptr %4, align 8
  %5 = load ptr, ptr %4, align 8
  %6 = getelementptr inbounds %class.QCPAbstractPlottable, ptr %5, i32 0, i32 4
  call void @_ZN4QPenC1ERKS_(ptr noundef nonnull align 8 dereferenceable(8) %0, ptr noundef nonnull align 8 dereferenceable(8) %6) #6
  ret void
}

; Function Attrs: mustprogress uwtable
define void @_ZN13RtpAudioGraph8setMutedEb(ptr noundef nonnull align 8 dereferenceable(44) %0, i1 noundef zeroext %1) #0 align 2 personality ptr @__gxx_personality_v0 {
  %3 = alloca ptr, align 8
  %4 = alloca i8, align 1
  %5 = alloca %class.QPen, align 8
  %6 = alloca ptr, align 8
  %7 = alloca i32, align 4
  store ptr %0, ptr %3, align 8
  %8 = zext i1 %1 to i8
  store i8 %8, ptr %4, align 1
  %9 = load ptr, ptr %3, align 8
  %10 = getelementptr inbounds %class.RtpAudioGraph, ptr %9, i32 0, i32 1
  %11 = load ptr, ptr %10, align 8
  call void @_ZNK20QCPAbstractPlottable3penEv(ptr dead_on_unwind writable sret(%class.QPen) align 8 %5, ptr noundef nonnull align 8 dereferenceable(184) %11)
  %12 = load i8, ptr %4, align 1
  %13 = trunc i8 %12 to i1
  br i1 %13, label %14, label %20

14:                                               ; preds = %2
  invoke void @_ZN4QPen8setStyleEN2Qt8PenStyleE(ptr noundef nonnull align 8 dereferenceable(8) %5, i32 noundef 3)
          to label %15 unwind label %16

15:                                               ; preds = %14
  br label %22

16:                                               ; preds = %22, %20, %14
  %17 = landingpad { ptr, i32 }
          cleanup
  %18 = extractvalue { ptr, i32 } %17, 0
  store ptr %18, ptr %6, align 8
  %19 = extractvalue { ptr, i32 } %17, 1
  store i32 %19, ptr %7, align 4
  call void @_ZN4QPenD1Ev(ptr noundef nonnull align 8 dereferenceable(8) %5) #6
  br label %26

20:                                               ; preds = %2
  invoke void @_ZN4QPen8setStyleEN2Qt8PenStyleE(ptr noundef nonnull align 8 dereferenceable(8) %5, i32 noundef 1)
          to label %21 unwind label %16

21:                                               ; preds = %20
  br label %22

22:                                               ; preds = %21, %15
  %23 = getelementptr inbounds %class.RtpAudioGraph, ptr %9, i32 0, i32 1
  %24 = load ptr, ptr %23, align 8
  invoke void @_ZN20QCPAbstractPlottable6setPenERK4QPen(ptr noundef nonnull align 8 dereferenceable(184) %24, ptr noundef nonnull align 8 dereferenceable(8) %5)
          to label %25 unwind label %16

25:                                               ; preds = %22
  call void @_ZN4QPenD1Ev(ptr noundef nonnull align 8 dereferenceable(8) %5) #6
  ret void

26:                                               ; preds = %16
  %27 = load ptr, ptr %6, align 8
  %28 = load i32, ptr %7, align 4
  %29 = insertvalue { ptr, i32 } poison, ptr %27, 0
  %30 = insertvalue { ptr, i32 } %29, i32 %28, 1
  resume { ptr, i32 } %30
}