; Function Attrs: mustprogress uwtable
define void @_ZN13RtpAudioGraph8setMutedEb(ptr nocapture noundef nonnull readonly align 8 dereferenceable(44) %0, i1 noundef zeroext %1) local_unnamed_addr #0 align 2 personality ptr @__gxx_personality_v0 {
.invoke:
  %2 = alloca %class.QPen, align 8
  %3 = getelementptr inbounds i8, ptr %0, i64 16
  %4 = load ptr, ptr %3, align 8
  %5 = getelementptr inbounds i8, ptr %4, i64 96
  call void @_ZN4QPenC1ERKS_(ptr noundef nonnull align 8 dereferenceable(8) %2, ptr noundef nonnull align 8 dereferenceable(8) %5) #5
  %6 = select i1 %1, i32 3, i32 1
  invoke void @_ZN4QPen8setStyleEN2Qt8PenStyleE(ptr noundef nonnull align 8 dereferenceable(8) %2, i32 noundef %6)
          to label %9 unwind label %7

7:                                                ; preds = %.invoke, %9
  %8 = landingpad { ptr, i32 }
          cleanup
  call void @_ZN4QPenD1Ev(ptr noundef nonnull align 8 dereferenceable(8) %2) #5
  resume { ptr, i32 } %8

9:                                                ; preds = %.invoke
  %10 = load ptr, ptr %3, align 8
  invoke void @_ZN20QCPAbstractPlottable6setPenERK4QPen(ptr noundef nonnull align 8 dereferenceable(184) %10, ptr noundef nonnull align 8 dereferenceable(8) %2)
          to label %11 unwind label %7

11:                                               ; preds = %9
  call void @_ZN4QPenD1Ev(ptr noundef nonnull align 8 dereferenceable(8) %2) #5
  ret void
}